; Function Attrs: nounwind sspstrong uwtable
define internal fastcc void @set_sg(ptr noundef captures(none) %0, double noundef %1) unnamed_addr #0 {
  %3 = load i32, ptr %0, align 8, !tbaa !47
  %4 = and i32 %3, 128
  %.not = icmp eq i32 %4, 0
  br i1 %.not, label %5, label %50

5:                                                ; preds = %2
  %6 = and i32 %3, 1
  %.not.i = icmp eq i32 %6, 0
  br i1 %.not.i, label %7, label %get_s_jd.exit

7:                                                ; preds = %5
  %8 = getelementptr inbounds nuw i8, ptr %0, i64 20
  %9 = load i32, ptr %8, align 4, !tbaa !47
  %10 = getelementptr inbounds nuw i8, ptr %0, i64 24
  %11 = load i32, ptr %10, align 8, !tbaa !47
  %12 = lshr i32 %11, 22
  %13 = and i32 %12, 15
  %14 = lshr i32 %11, 17
  %15 = and i32 %14, 31
  %16 = tail call fastcc double @s_virtual_sg(ptr noundef nonnull %0)
  %17 = icmp samesign ult i32 %13, 3
  %18 = add nuw nsw i32 %13, 12
  %.018.i.i = select i1 %17, i32 %18, i32 %13
  %19 = sext i1 %17 to i32
  %.017.i.i = add nsw i32 %9, %19
  %20 = sitofp i32 %.017.i.i to double
  %21 = fdiv double %20, 1.000000e+02
  %22 = tail call double @llvm.floor.f64(double %21)
  %23 = fsub double 2.000000e+00, %22
  %24 = fmul double %22, 2.500000e-01
  %25 = tail call double @llvm.floor.f64(double %24)
  %26 = fadd double %23, %25
  %27 = add nsw i32 %.017.i.i, 4716
  %28 = sitofp i32 %27 to double
  %29 = fmul double %28, 3.652500e+02
  %30 = tail call double @llvm.floor.f64(double %29)
  %31 = add nuw nsw i32 %.018.i.i, 1
  %32 = uitofp nneg i32 %31 to double
  %33 = fmul double %32, 3.060010e+01
  %34 = tail call double @llvm.floor.f64(double %33)
  %35 = fadd double %34, %30
  %36 = uitofp nneg i32 %15 to double
  %37 = fadd double %35, %36
  %38 = fadd double %37, %26
  %39 = fadd double %38, -1.524000e+03
  %40 = fcmp uge double %39, %16
  %41 = fsub double %39, %26
  %.0.i.i = select i1 %40, double %39, double %41
  %42 = fptosi double %.0.i.i to i32
  %43 = getelementptr inbounds nuw i8, ptr %0, i64 4
  store i32 %42, ptr %43, align 4, !tbaa !47
  %44 = load i32, ptr %0, align 8, !tbaa !47
  %45 = or i32 %44, 1
  %.pre = and i32 %44, 128
  %46 = icmp eq i32 %.pre, 0
  %47 = select i1 %46, i32 -133, i32 -13
  br label %get_s_jd.exit

get_s_jd.exit:                                    ; preds = %5, %7
  %.pre-phi = phi i32 [ -133, %5 ], [ %47, %7 ]
  %48 = phi i32 [ %3, %5 ], [ %45, %7 ]
  %49 = and i32 %.pre-phi, %48
  br label %77

50:                                               ; preds = %2
  tail call fastcc void @get_c_jd(ptr noundef nonnull %0)
  %51 = load i32, ptr %0, align 8, !tbaa !47
  %52 = and i32 %51, 2
  %.not.i11 = icmp eq i32 %52, 0
  br i1 %.not.i11, label %53, label %get_c_df.exit

53:                                               ; preds = %50
  %54 = getelementptr inbounds nuw i8, ptr %0, i64 24
  %55 = load i32, ptr %54, align 8, !tbaa !47
  %56 = lshr i32 %55, 12
  %57 = and i32 %56, 31
  %58 = lshr i32 %55, 6
  %59 = and i32 %58, 63
  %60 = and i32 %55, 63
  %61 = mul nuw nsw i32 %57, 3600
  %62 = mul nuw nsw i32 %59, 60
  %63 = getelementptr inbounds nuw i8, ptr %0, i64 32
  %64 = load i32, ptr %63, align 8, !tbaa !47
  %65 = sub i32 %60, %64
  %66 = add i32 %65, %61
  %67 = add i32 %66, %62
  %68 = icmp slt i32 %67, 0
  %69 = add nsw i32 %67, 86400
  %70 = icmp samesign ugt i32 %67, 86399
  %71 = add nsw i32 %67, -86400
  %spec.select.i.i = select i1 %70, i32 %71, i32 %67
  %.0.i.i12 = select i1 %68, i32 %69, i32 %spec.select.i.i
  %72 = getelementptr inbounds nuw i8, ptr %0, i64 28
  store i32 %.0.i.i12, ptr %72, align 4, !tbaa !47
  %73 = or disjoint i32 %51, 2
  br label %get_c_df.exit

get_c_df.exit:                                    ; preds = %50, %53
  %74 = phi i32 [ %51, %50 ], [ %73, %53 ]
  %75 = and i32 %74, 128
  %.not.i13 = icmp eq i32 %75, 0
  %..i14 = select i1 %.not.i13, i32 -133, i32 -13
  %76 = and i32 %..i14, %74
  br label %77

77:                                               ; preds = %get_c_df.exit, %get_s_jd.exit
  %.sink = phi i32 [ %76, %get_c_df.exit ], [ %49, %get_s_jd.exit ]
  %78 = getelementptr inbounds nuw i8, ptr %0, i64 20
  store i32 0, ptr %78, align 4, !tbaa !47
  %79 = getelementptr inbounds nuw i8, ptr %0, i64 24
  store i32 0, ptr %79, align 8, !tbaa !47
  store i32 %.sink, ptr %0, align 8, !tbaa !47
  %80 = fptrunc double %1 to float
  %81 = getelementptr inbounds nuw i8, ptr %0, i64 16
  store float %80, ptr %81, align 8, !tbaa !47
  ret void
}